target datalayout = "e-m:e-p270:32:32-p271:32:32-p272:64:64-i64:64-i128:128-f80:128-n8:16:32:64-S128"
target triple = "x86_64-pc-linux-gnu"

@.str.1 = private unnamed_addr constant [9 x i8] c"t_zset.c\00", align 1
@.str.4 = private unnamed_addr constant [31 x i8] c"*eptr != NULL && *sptr != NULL\00", align 1
@.str.6 = private unnamed_addr constant [14 x i8] c"_eptr != NULL\00", align 1

; Function Attrs: nounwind uwtable
define dso_local void @zzlPrev(ptr noundef %0, ptr noundef %1, ptr noundef %2) #0 {
  %4 = alloca ptr, align 8
  %5 = alloca ptr, align 8
  %6 = alloca ptr, align 8
  %7 = alloca ptr, align 8
  %8 = alloca ptr, align 8
  store ptr %0, ptr %4, align 8, !tbaa !11
  store ptr %1, ptr %5, align 8, !tbaa !80
  store ptr %2, ptr %6, align 8, !tbaa !80
  call void @llvm.lifetime.start.p0(i64 8, ptr %7) #12
  call void @llvm.lifetime.start.p0(i64 8, ptr %8) #12
  %9 = load ptr, ptr %5, align 8, !tbaa !80
  %10 = load ptr, ptr %9, align 8, !tbaa !11
  %11 = icmp ne ptr %10, null
  br i1 %11, label %12, label %16

12:                                               ; preds = %3
  %13 = load ptr, ptr %6, align 8, !tbaa !80
  %14 = load ptr, ptr %13, align 8, !tbaa !11
  %15 = icmp ne ptr %14, null
  br label %16

16:                                               ; preds = %12, %3
  %17 = phi i1 [ false, %3 ], [ %15, %12 ]
  %18 = xor i1 %17, true
  %19 = xor i1 %18, true
  %20 = zext i1 %19 to i32
  %21 = sext i32 %20 to i64
  %22 = call i64 @llvm.expect.i64(i64 %21, i64 1)
  %23 = icmp ne i64 %22, 0
  br i1 %23, label %24, label %25

24:                                               ; preds = %16
  br label %27

25:                                               ; preds = %16
  call void @_serverAssert(ptr noundef @.str.4, ptr noundef @.str.1, i32 noundef 861)
  call void @abort() #14
  unreachable

26:                                               ; No predecessors!
  br label %27

27:                                               ; preds = %26, %24
  %28 = load ptr, ptr %4, align 8, !tbaa !11
  %29 = load ptr, ptr %5, align 8, !tbaa !80
  %30 = load ptr, ptr %29, align 8, !tbaa !11
  %31 = call ptr @lpPrev(ptr noundef %28, ptr noundef %30)
  store ptr %31, ptr %8, align 8, !tbaa !11
  %32 = load ptr, ptr %8, align 8, !tbaa !11
  %33 = icmp ne ptr %32, null
  br i1 %33, label %34, label %50

34:                                               ; preds = %27
  %35 = load ptr, ptr %4, align 8, !tbaa !11
  %36 = load ptr, ptr %8, align 8, !tbaa !11
  %37 = call ptr @lpPrev(ptr noundef %35, ptr noundef %36)
  store ptr %37, ptr %7, align 8, !tbaa !11
  %38 = load ptr, ptr %7, align 8, !tbaa !11
  %39 = icmp ne ptr %38, null
  %40 = xor i1 %39, true
  %41 = xor i1 %40, true
  %42 = zext i1 %41 to i32
  %43 = sext i32 %42 to i64
  %44 = call i64 @llvm.expect.i64(i64 %43, i64 1)
  %45 = icmp ne i64 %44, 0
  br i1 %45, label %46, label %47

46:                                               ; preds = %34
  br label %49

47:                                               ; preds = %34
  call void @_serverAssert(ptr noundef @.str.6, ptr noundef @.str.1, i32 noundef 866)
  call void @abort() #14
  unreachable

48:                                               ; No predecessors!
  br label %49

49:                                               ; preds = %48, %46
  br label %51

50:                                               ; preds = %27
  store ptr null, ptr %7, align 8, !tbaa !11
  br label %51

51:                                               ; preds = %50, %49
  %52 = load ptr, ptr %7, align 8, !tbaa !11
  %53 = load ptr, ptr %5, align 8, !tbaa !80
  store ptr %52, ptr %53, align 8, !tbaa !11
  %54 = load ptr, ptr %8, align 8, !tbaa !11
  %55 = load ptr, ptr %6, align 8, !tbaa !80
  store ptr %54, ptr %55, align 8, !tbaa !11
  call void @llvm.lifetime.end.p0(i64 8, ptr %8) #12
  call void @llvm.lifetime.end.p0(i64 8, ptr %7) #12
  ret void
}